; Function Attrs: mustprogress nofree norecurse nosync nounwind willreturn memory(readwrite, inaccessiblemem: none) uwtable
define void @_ZN6icu_7717CollationIterator5resetEv(ptr noundef nonnull align 8 captures(none) dereferenceable(389) initializes((24, 28), (368, 372)) %0) local_unnamed_addr #14 align 2 {
  %2 = getelementptr inbounds nuw i8, ptr %0, i64 24
  store i32 0, ptr %2, align 8, !tbaa !37
  %3 = getelementptr inbounds nuw i8, ptr %0, i64 368
  store i32 0, ptr %3, align 8, !tbaa !33
  %4 = getelementptr inbounds nuw i8, ptr %0, i64 376
  %5 = load ptr, ptr %4, align 8, !tbaa !34
  %.not = icmp eq ptr %5, null
  br i1 %.not, label %12, label %6

6:                                                ; preds = %1
  %7 = getelementptr inbounds nuw i8, ptr %5, i64 16
  %8 = load i16, ptr %7, align 8, !tbaa !43
  %9 = and i16 %8, 1
  %.not.i.i = icmp eq i16 %9, 0
  %10 = and i16 %8, 30
  %storemerge.i.i = select i1 %.not.i.i, i16 %10, i16 2
  store i16 %storemerge.i.i, ptr %7, align 8, !tbaa !43
  %11 = getelementptr inbounds nuw i8, ptr %5, i64 136
  store i32 0, ptr %11, align 8, !tbaa !45
  br label %12

12:                                               ; preds = %6, %1
  ret void
}